target datalayout = "e-m:e-p270:32:32-p271:32:32-p272:64:64-i64:64-i128:128-f80:128-n8:16:32:64-S128"
target triple = "x86_64-pc-linux-gnu"

%struct._zend_executor_globals = type { %struct._zval_struct, %struct._zval_struct, [32 x ptr], ptr, ptr, %struct._zend_array, %struct._zend_array, ptr, i32, i8, %struct._zval_struct, i32, ptr, ptr, ptr, ptr, ptr, ptr, i64, ptr, ptr, i32, ptr, i32, i64, i32, i32, i32, i8, i8, %struct.zend_atomic_bool_s, %struct.zend_atomic_bool_s, ptr, i64, ptr, ptr, %struct._zend_array, %struct._zend_array, i32, i8, %struct._zval_struct, %struct._zval_struct, %struct._zend_stack, %struct._zend_stack, %struct._zend_stack, ptr, i32, i32, i64, ptr, ptr, ptr, %struct._zend_objects_store, %struct._zend_lazy_objects_store, ptr, ptr, ptr, [3 x %struct._zend_op], ptr, i8, i8, i64, i32, i32, ptr, [16 x %struct._HashTableIterator], ptr, %union._zend_function, %struct._zend_op, %struct._zend_array, i64, %struct.zend_get_gc_buffer, ptr, ptr, ptr, i64, i8, i32, ptr, ptr, i64, %struct._zend_call_stack, i64, i64, %struct._zend_strtod_state, [6 x ptr] }
%struct.zend_atomic_bool_s = type { i8 }
%struct._zval_struct = type { %union._zend_value, %union.anon, %union.anon.2 }
%union._zend_value = type { i64 }
%union.anon = type { i32 }
%union.anon.2 = type { i32 }
%struct._zend_stack = type { i32, i32, i32, ptr }
%struct._zend_objects_store = type { ptr, i32, i32, i32 }
%struct._zend_lazy_objects_store = type { %struct._zend_array }
%struct._HashTableIterator = type { ptr, i32, i32 }
%union._zend_function = type { %struct._zend_op_array }
%struct._zend_op_array = type { i8, [3 x i8], i32, ptr, ptr, ptr, i32, i32, ptr, ptr, ptr, ptr, i32, ptr, i32, i32, i32, ptr, ptr, ptr, ptr, ptr, i32, i32, ptr, ptr, ptr, i32, i32, i32, i32, ptr, ptr, [6 x ptr] }
%struct._zend_op = type { ptr, %union._znode_op, %union._znode_op, %union._znode_op, i32, i32, i8, i8, i8, i8 }
%union._znode_op = type { i32 }
%struct._zend_array = type { %struct._zend_refcounted_h, %union.anon.4, i32, %union.anon.6, i32, i32, i32, i32, i64, ptr }
%struct._zend_refcounted_h = type { i32, %union.anon.3 }
%union.anon.3 = type { i32 }
%union.anon.4 = type { i32 }
%union.anon.6 = type { ptr }
%struct.zend_get_gc_buffer = type { ptr, ptr, ptr }
%struct._zend_call_stack = type { ptr, i64 }
%struct._zend_strtod_state = type { [8 x ptr], ptr, ptr }
%struct._zend_compiler_globals = type { %struct._zend_stack, ptr, ptr, i32, ptr, ptr, ptr, ptr, i8, i8, i8, i8, i8, %struct._zend_llist, ptr, i8, i8, i8, i8, ptr, i32, i32, %struct._zend_oparray_context, %struct._zend_file_context, ptr, %struct._zend_array, ptr, i64, i8, i8, i8, ptr, ptr, %struct._zend_stack, ptr, i32, ptr, ptr, i64, i64, ptr, ptr, ptr, ptr, i32, ptr, i32, %struct._zend_stack }
%struct._zend_llist = type { ptr, ptr, i64, i64, ptr, i8, ptr }
%struct._zend_oparray_context = type { ptr, ptr, i32, i32, i32, i32, i32, i32, i32, ptr, ptr, ptr, i32, i8 }
%struct._zend_file_context = type { %struct._zend_declarables, ptr, i8, i8, ptr, ptr, ptr, %struct._zend_array }
%struct._zend_declarables = type { i64 }
%struct._zend_string = type { %struct._zend_refcounted_h, i64, i64, [1 x i8] }
%struct._zend_class_entry = type { i8, ptr, %union.anon.8, i32, i32, i32, i32, ptr, ptr, ptr, %struct._zend_array, %struct._zend_array, %struct._zend_array, ptr, ptr, ptr, ptr, ptr, ptr, ptr, ptr, ptr, ptr, ptr, ptr, ptr, ptr, ptr, ptr, ptr, ptr, ptr, %union.anon.9, ptr, ptr, ptr, ptr, i32, i32, i32, i32, %union.anon.10, ptr, ptr, ptr, ptr, i32, ptr, ptr, %union.anon.11 }
%union.anon.8 = type { ptr }
%union.anon.9 = type { ptr }
%union.anon.10 = type { ptr }
%union.anon.11 = type { %struct.anon.12 }
%struct.anon.12 = type { ptr, i32, i32 }
%struct._zend_module_entry = type { i16, i32, i8, i8, ptr, ptr, ptr, ptr, ptr, ptr, ptr, ptr, ptr, ptr, i64, ptr, ptr, ptr, ptr, i32, i8, ptr, i32, ptr }
%struct.anon.13 = type { ptr, ptr }

@executor_globals = external global %struct._zend_executor_globals, align 8
@compiler_globals = external global %struct._zend_compiler_globals, align 8
@zend_new_interned_string = external global ptr, align 8
@zend_ce_stringable = external global ptr, align 8
@.str.175 = private unnamed_addr constant [11 x i8] c"Stringable\00", align 1

; Function Attrs: alwaysinline nounwind uwtable
define internal i32 @zend_gc_delref(ptr noundef %0) #2 {
  %2 = alloca ptr, align 8
  store ptr %0, ptr %2, align 8, !tbaa !143
  %3 = load ptr, ptr %2, align 8, !tbaa !143
  %4 = getelementptr inbounds nuw %struct._zend_refcounted_h, ptr %3, i32 0, i32 0
  %5 = load i32, ptr %4, align 4, !tbaa !145
  %6 = icmp ugt i32 %5, 0
  call void @llvm.assume(i1 %6)
  br label %7

7:                                                ; preds = %1
  br label %8

8:                                                ; preds = %7
  %9 = load ptr, ptr %2, align 8, !tbaa !143
  %10 = getelementptr inbounds nuw %struct._zend_refcounted_h, ptr %9, i32 0, i32 0
  %11 = load i32, ptr %10, align 4, !tbaa !145
  %12 = add i32 %11, -1
  store i32 %12, ptr %10, align 4, !tbaa !145
  ret i32 %12
}

; Function Attrs: alwaysinline nounwind uwtable
define internal i32 @zval_gc_flags(i32 noundef %0) #2 {
  %2 = alloca i32, align 4
  store i32 %0, ptr %2, align 4, !tbaa !4
  %3 = load i32, ptr %2, align 4, !tbaa !4
  %4 = lshr i32 %3, 0
  %5 = and i32 %4, 1008
  ret i32 %5
}

; Function Attrs: alwaysinline nounwind uwtable
define internal zeroext i1 @zend_string_equals_cstr(ptr noundef %0, ptr noundef %1, i64 noundef %2) #2 {
  %4 = alloca ptr, align 8
  %5 = alloca ptr, align 8
  %6 = alloca i64, align 8
  store ptr %0, ptr %4, align 8, !tbaa !48
  store ptr %1, ptr %5, align 8, !tbaa !47
  store i64 %2, ptr %6, align 8, !tbaa !85
  %7 = load ptr, ptr %4, align 8, !tbaa !48
  %8 = getelementptr inbounds nuw %struct._zend_string, ptr %7, i32 0, i32 2
  %9 = load i64, ptr %8, align 8, !tbaa !171
  %10 = load i64, ptr %6, align 8, !tbaa !85
  %11 = icmp eq i64 %9, %10
  br i1 %11, label %12, label %21

12:                                               ; preds = %3
  %13 = load ptr, ptr %4, align 8, !tbaa !48
  %14 = getelementptr inbounds nuw %struct._zend_string, ptr %13, i32 0, i32 3
  %15 = getelementptr inbounds [1 x i8], ptr %14, i64 0, i64 0
  %16 = load ptr, ptr %5, align 8, !tbaa !47
  %17 = load i64, ptr %6, align 8, !tbaa !85
  %18 = call i32 @memcmp(ptr noundef %15, ptr noundef %16, i64 noundef %17) #22
  %19 = icmp ne i32 %18, 0
  %20 = xor i1 %19, true
  br label %21

21:                                               ; preds = %12, %3
  %22 = phi i1 [ false, %3 ], [ %20, %12 ]
  ret i1 %22
}

; Function Attrs: alwaysinline nounwind uwtable
define internal void @zend_string_release_ex(ptr noundef %0, i1 noundef zeroext %1) #2 {
  %3 = alloca ptr, align 8
  %4 = alloca i8, align 1
  store ptr %0, ptr %3, align 8, !tbaa !48
  %5 = zext i1 %1 to i8
  store i8 %5, ptr %4, align 1, !tbaa !72
  %6 = load ptr, ptr %3, align 8, !tbaa !48
  %7 = getelementptr inbounds nuw %struct._zend_string, ptr %6, i32 0, i32 0
  %8 = getelementptr inbounds nuw %struct._zend_refcounted_h, ptr %7, i32 0, i32 1
  %9 = load i32, ptr %8, align 4, !tbaa !44
  %10 = call i32 @zval_gc_flags(i32 noundef %9)
  %11 = and i32 %10, 64
  %12 = icmp ne i32 %11, 0
  br i1 %12, label %27, label %13

13:                                               ; preds = %2
  %14 = load ptr, ptr %3, align 8, !tbaa !48
  %15 = getelementptr inbounds nuw %struct._zend_string, ptr %14, i32 0, i32 0
  %16 = call i32 @zend_gc_delref(ptr noundef %15)
  %17 = icmp eq i32 %16, 0
  br i1 %17, label %18, label %26

18:                                               ; preds = %13
  %19 = load i8, ptr %4, align 1, !tbaa !72, !range !73, !noundef !74
  %20 = trunc i8 %19 to i1
  br i1 %20, label %21, label %23

21:                                               ; preds = %18
  %22 = load ptr, ptr %3, align 8, !tbaa !48
  call void @free(ptr noundef %22) #21
  br label %25

23:                                               ; preds = %18
  %24 = load ptr, ptr %3, align 8, !tbaa !48
  call void @_efree(ptr noundef %24)
  br label %25

25:                                               ; preds = %23, %21
  br label %26

26:                                               ; preds = %25, %13
  br label %27

27:                                               ; preds = %26, %2
  ret void
}

; Function Attrs: alwaysinline nounwind uwtable
define internal ptr @zend_hash_update_ptr(ptr noundef %0, ptr noundef %1, ptr noundef %2) #2 {
  %4 = alloca ptr, align 8
  %5 = alloca ptr, align 8
  %6 = alloca ptr, align 8
  %7 = alloca %struct._zval_struct, align 8
  %8 = alloca ptr, align 8
  store ptr %0, ptr %4, align 8, !tbaa !100
  store ptr %1, ptr %5, align 8, !tbaa !48
  store ptr %2, ptr %6, align 8, !tbaa !102
  call void @llvm.lifetime.start.p0(i64 16, ptr %7) #21
  call void @llvm.lifetime.start.p0(i64 8, ptr %8) #21
  br label %9

9:                                                ; preds = %3
  %10 = load ptr, ptr %6, align 8, !tbaa !102
  %11 = getelementptr inbounds nuw %struct._zval_struct, ptr %7, i32 0, i32 0
  store ptr %10, ptr %11, align 8, !tbaa !44
  %12 = getelementptr inbounds nuw %struct._zval_struct, ptr %7, i32 0, i32 1
  store i32 13, ptr %12, align 8, !tbaa !44
  br label %13

13:                                               ; preds = %9
  br label %14

14:                                               ; preds = %13
  %15 = load ptr, ptr %4, align 8, !tbaa !100
  %16 = load ptr, ptr %5, align 8, !tbaa !48
  %17 = call ptr @zend_hash_update(ptr noundef %15, ptr noundef %16, ptr noundef %7)
  store ptr %17, ptr %8, align 8, !tbaa !8
  %18 = load ptr, ptr %8, align 8, !tbaa !8
  %19 = getelementptr inbounds nuw %struct._zval_struct, ptr %18, i32 0, i32 0
  %20 = load ptr, ptr %19, align 8, !tbaa !44
  %21 = icmp ne ptr %20, null
  call void @llvm.assume(i1 %21)
  %22 = load ptr, ptr %8, align 8, !tbaa !8
  %23 = getelementptr inbounds nuw %struct._zval_struct, ptr %22, i32 0, i32 0
  %24 = load ptr, ptr %23, align 8, !tbaa !44
  call void @llvm.lifetime.end.p0(i64 8, ptr %8) #21
  call void @llvm.lifetime.end.p0(i64 16, ptr %7) #21
  ret ptr %24
}

; Function Attrs: nounwind uwtable
define internal ptr @do_register_internal_class(ptr noundef %0, i32 noundef %1) #0 {
  %3 = alloca ptr, align 8
  %4 = alloca i32, align 4
  %5 = alloca ptr, align 8
  %6 = alloca ptr, align 8
  store ptr %0, ptr %3, align 8, !tbaa !66
  store i32 %1, ptr %4, align 4, !tbaa !4
  call void @llvm.lifetime.start.p0(i64 8, ptr %5) #21
  %7 = call noalias ptr @malloc(i64 noundef 520) #26
  store ptr %7, ptr %5, align 8, !tbaa !66
  call void @llvm.lifetime.start.p0(i64 8, ptr %6) #21
  %8 = load ptr, ptr %5, align 8, !tbaa !66
  %9 = load ptr, ptr %3, align 8, !tbaa !66
  call void @llvm.memcpy.p0.p0.i64(ptr align 8 %8, ptr align 8 %9, i64 520, i1 false), !tbaa.struct !273
  %10 = load ptr, ptr %5, align 8, !tbaa !66
  %11 = getelementptr inbounds nuw %struct._zend_class_entry, ptr %10, i32 0, i32 0
  store i8 1, ptr %11, align 8, !tbaa !69
  %12 = load ptr, ptr %5, align 8, !tbaa !66
  call void @zend_initialize_class_data(ptr noundef %12, i1 noundef zeroext false)
  %13 = load ptr, ptr %5, align 8, !tbaa !66
  %14 = getelementptr inbounds nuw %struct._zend_class_entry, ptr %13, i32 0, i32 1
  %15 = load ptr, ptr %14, align 8, !tbaa !54
  call void @zend_alloc_ce_cache(ptr noundef %15)
  %16 = load ptr, ptr %3, align 8, !tbaa !66
  %17 = getelementptr inbounds nuw %struct._zend_class_entry, ptr %16, i32 0, i32 4
  %18 = load i32, ptr %17, align 4, !tbaa !140
  %19 = load i32, ptr %4, align 4, !tbaa !4
  %20 = or i32 %18, %19
  %21 = or i32 %20, 4096
  %22 = or i32 %21, 8
  %23 = or i32 %22, 131072
  %24 = or i32 %23, 262144
  %25 = load ptr, ptr %5, align 8, !tbaa !66
  %26 = getelementptr inbounds nuw %struct._zend_class_entry, ptr %25, i32 0, i32 4
  store i32 %24, ptr %26, align 4, !tbaa !140
  %27 = load ptr, ptr getelementptr inbounds nuw (%struct._zend_executor_globals, ptr @executor_globals, i32 0, i32 58), align 8, !tbaa !189
  %28 = load ptr, ptr %5, align 8, !tbaa !66
  %29 = getelementptr inbounds nuw %struct._zend_class_entry, ptr %28, i32 0, i32 49
  %30 = getelementptr inbounds nuw %struct.anon.13, ptr %29, i32 0, i32 1
  store ptr %27, ptr %30, align 8, !tbaa !44
  %31 = load ptr, ptr %5, align 8, !tbaa !66
  %32 = getelementptr inbounds nuw %struct._zend_class_entry, ptr %31, i32 0, i32 49
  %33 = getelementptr inbounds nuw %struct.anon.13, ptr %32, i32 0, i32 0
  %34 = load ptr, ptr %33, align 8, !tbaa !44
  %35 = icmp ne ptr %34, null
  br i1 %35, label %36, label %49

36:                                               ; preds = %2
  %37 = load ptr, ptr %5, align 8, !tbaa !66
  %38 = load ptr, ptr %5, align 8, !tbaa !66
  %39 = getelementptr inbounds nuw %struct._zend_class_entry, ptr %38, i32 0, i32 49
  %40 = getelementptr inbounds nuw %struct.anon.13, ptr %39, i32 0, i32 0
  %41 = load ptr, ptr %40, align 8, !tbaa !44
  %42 = load ptr, ptr %5, align 8, !tbaa !66
  %43 = getelementptr inbounds nuw %struct._zend_class_entry, ptr %42, i32 0, i32 10
  %44 = load ptr, ptr getelementptr inbounds nuw (%struct._zend_executor_globals, ptr @executor_globals, i32 0, i32 58), align 8, !tbaa !189
  %45 = getelementptr inbounds nuw %struct._zend_module_entry, ptr %44, i32 0, i32 20
  %46 = load i8, ptr %45, align 4, !tbaa !190
  %47 = zext i8 %46 to i32
  %48 = call i32 @zend_register_functions(ptr noundef %37, ptr noundef %41, ptr noundef %43, i32 noundef %47)
  br label %49

49:                                               ; preds = %36, %2
  %50 = load ptr, ptr %3, align 8, !tbaa !66
  %51 = getelementptr inbounds nuw %struct._zend_class_entry, ptr %50, i32 0, i32 1
  %52 = load ptr, ptr %51, align 8, !tbaa !54
  %53 = load ptr, ptr getelementptr inbounds nuw (%struct._zend_executor_globals, ptr @executor_globals, i32 0, i32 58), align 8, !tbaa !189
  %54 = getelementptr inbounds nuw %struct._zend_module_entry, ptr %53, i32 0, i32 20
  %55 = load i8, ptr %54, align 4, !tbaa !190
  %56 = zext i8 %55 to i32
  %57 = icmp eq i32 %56, 1
  %58 = call ptr @zend_string_tolower_ex(ptr noundef %52, i1 noundef zeroext %57)
  store ptr %58, ptr %6, align 8, !tbaa !48
  %59 = load ptr, ptr @zend_new_interned_string, align 8, !tbaa !102
  %60 = load ptr, ptr %6, align 8, !tbaa !48
  %61 = call ptr %59(ptr noundef %60)
  store ptr %61, ptr %6, align 8, !tbaa !48
  %62 = load ptr, ptr getelementptr inbounds nuw (%struct._zend_compiler_globals, ptr @compiler_globals, i32 0, i32 6), align 8, !tbaa !199
  %63 = load ptr, ptr %6, align 8, !tbaa !48
  %64 = load ptr, ptr %5, align 8, !tbaa !66
  %65 = call ptr @zend_hash_update_ptr(ptr noundef %62, ptr noundef %63, ptr noundef %64)
  %66 = load ptr, ptr %6, align 8, !tbaa !48
  call void @zend_string_release_ex(ptr noundef %66, i1 noundef zeroext true)
  %67 = load ptr, ptr %5, align 8, !tbaa !66
  %68 = getelementptr inbounds nuw %struct._zend_class_entry, ptr %67, i32 0, i32 25
  %69 = load ptr, ptr %68, align 8, !tbaa !262
  %70 = icmp ne ptr %69, null
  br i1 %70, label %71, label %90

71:                                               ; preds = %49
  %72 = load ptr, ptr %5, align 8, !tbaa !66
  %73 = getelementptr inbounds nuw %struct._zend_class_entry, ptr %72, i32 0, i32 1
  %74 = load ptr, ptr %73, align 8, !tbaa !54
  %75 = call zeroext i1 @zend_string_equals_cstr(ptr noundef %74, ptr noundef @.str.175, i64 noundef 10)
  br i1 %75, label %90, label %76

76:                                               ; preds = %71
  %77 = load ptr, ptr %5, align 8, !tbaa !66
  %78 = getelementptr inbounds nuw %struct._zend_class_entry, ptr %77, i32 0, i32 4
  %79 = load i32, ptr %78, align 4, !tbaa !140
  %80 = and i32 %79, 2
  %81 = icmp ne i32 %80, 0
  br i1 %81, label %90, label %82

82:                                               ; preds = %76
  %83 = load ptr, ptr @zend_ce_stringable, align 8, !tbaa !66
  %84 = icmp ne ptr %83, null
  br i1 %84, label %85, label %86

85:                                               ; preds = %82
  br label %86

86:                                               ; preds = %85, %82
  %87 = phi i1 [ false, %82 ], [ true, %85 ]
  call void @llvm.assume(i1 %87)
  %88 = load ptr, ptr %5, align 8, !tbaa !66
  %89 = load ptr, ptr @zend_ce_stringable, align 8, !tbaa !66
  call void @zend_do_implement_interface(ptr noundef %88, ptr noundef %89)
  br label %90

90:                                               ; preds = %86, %76, %71, %49
  %91 = load ptr, ptr %5, align 8, !tbaa !66
  call void @llvm.lifetime.end.p0(i64 8, ptr %6) #21
  call void @llvm.lifetime.end.p0(i64 8, ptr %5) #21
  ret ptr %91
}