; Function Attrs: nounwind uwtable
define internal fastcc noundef ptr @do_register_internal_class(ptr noundef readonly captures(none) %0, i32 noundef %1) unnamed_addr #2 {
  %3 = alloca %struct._zval_struct, align 8
  %4 = tail call noalias dereferenceable_or_null(520) ptr @malloc(i64 noundef 520) #37
  tail call void @llvm.memcpy.p0.p0.i64(ptr noundef nonnull align 8 dereferenceable(520) %4, ptr noundef nonnull align 8 dereferenceable(520) %0, i64 520, i1 false), !tbaa.struct !272
  store i8 1, ptr %4, align 8, !tbaa !66
  tail call void @zend_initialize_class_data(ptr noundef nonnull %4, i1 noundef zeroext false) #34
  %5 = getelementptr inbounds nuw i8, ptr %4, i64 8
  %6 = load ptr, ptr %5, align 8, !tbaa !50
  tail call void @zend_alloc_ce_cache(ptr noundef %6) #34
  %7 = getelementptr inbounds nuw i8, ptr %0, i64 28
  %8 = load i32, ptr %7, align 4, !tbaa !67
  %9 = or i32 %1, %8
  %10 = or i32 %9, 397320
  %11 = getelementptr inbounds nuw i8, ptr %4, i64 28
  store i32 %10, ptr %11, align 4, !tbaa !67
  %12 = load ptr, ptr getelementptr inbounds nuw (i8, ptr @executor_globals, i64 1080), align 8, !tbaa !194
  %13 = getelementptr inbounds nuw i8, ptr %4, i64 504
  %14 = getelementptr inbounds nuw i8, ptr %4, i64 512
  store ptr %12, ptr %14, align 8, !tbaa !42
  %15 = load ptr, ptr %13, align 8, !tbaa !42
  %.not = icmp eq ptr %15, null
  br i1 %.not, label %22, label %16

16:                                               ; preds = %2
  %17 = getelementptr inbounds nuw i8, ptr %4, i64 64
  %18 = getelementptr inbounds nuw i8, ptr %12, i64 140
  %19 = load i8, ptr %18, align 4, !tbaa !195
  %20 = zext i8 %19 to i32
  %21 = tail call i32 @zend_register_functions(ptr noundef nonnull %4, ptr noundef nonnull %15, ptr noundef nonnull %17, i32 noundef %20)
  %.pre = load ptr, ptr getelementptr inbounds nuw (i8, ptr @executor_globals, i64 1080), align 8, !tbaa !194
  br label %22

22:                                               ; preds = %16, %2
  %23 = phi ptr [ %.pre, %16 ], [ %12, %2 ]
  %24 = getelementptr inbounds nuw i8, ptr %0, i64 8
  %25 = load ptr, ptr %24, align 8, !tbaa !50
  %26 = getelementptr inbounds nuw i8, ptr %23, i64 140
  %27 = load i8, ptr %26, align 4, !tbaa !195
  %28 = icmp eq i8 %27, 1
  %29 = tail call ptr @zend_string_tolower_ex(ptr noundef %25, i1 noundef zeroext %28) #34
  %30 = load ptr, ptr @zend_new_interned_string, align 8, !tbaa !151
  %31 = tail call ptr %30(ptr noundef %29) #34
  %32 = load ptr, ptr getelementptr inbounds nuw (i8, ptr @compiler_globals, i64 64), align 8, !tbaa !204
  call void @llvm.lifetime.start.p0(i64 16, ptr nonnull %3) #34
  store ptr %4, ptr %3, align 8, !tbaa !42
  %33 = getelementptr inbounds nuw i8, ptr %3, i64 8
  store i32 13, ptr %33, align 8, !tbaa !42
  %34 = call ptr @zend_hash_update(ptr noundef %32, ptr noundef %31, ptr noundef nonnull %3) #34
  call void @llvm.lifetime.end.p0(i64 16, ptr nonnull %3) #34
  %35 = getelementptr inbounds nuw i8, ptr %31, i64 4
  %36 = load i32, ptr %35, align 4, !tbaa !42
  %37 = and i32 %36, 64
  %.not.i = icmp eq i32 %37, 0
  br i1 %.not.i, label %38, label %zend_string_release_ex.exit

38:                                               ; preds = %22
  %39 = load i32, ptr %31, align 4, !tbaa !43
  %40 = icmp ne i32 %39, 0
  call void @llvm.assume(i1 %40)
  %41 = add i32 %39, -1
  store i32 %41, ptr %31, align 4, !tbaa !43
  %42 = icmp eq i32 %41, 0
  br i1 %42, label %43, label %zend_string_release_ex.exit

43:                                               ; preds = %38
  call void @free(ptr noundef nonnull %31) #34
  br label %zend_string_release_ex.exit

zend_string_release_ex.exit:                      ; preds = %22, %38, %43
  %44 = getelementptr inbounds nuw i8, ptr %4, i64 328
  %45 = load ptr, ptr %44, align 8, !tbaa !262
  %.not22 = icmp eq ptr %45, null
  br i1 %.not22, label %56, label %46

46:                                               ; preds = %zend_string_release_ex.exit
  %47 = load ptr, ptr %5, align 8, !tbaa !50
  %48 = getelementptr inbounds nuw i8, ptr %47, i64 16
  %49 = load i64, ptr %48, align 8, !tbaa !96
  %50 = icmp eq i64 %49, 10
  br i1 %50, label %zend_string_equals_cstr.exit, label %zend_string_equals_cstr.exit.thread

zend_string_equals_cstr.exit:                     ; preds = %46
  %51 = getelementptr inbounds nuw i8, ptr %47, i64 24
  %bcmp.i = call i32 @bcmp(ptr noundef nonnull dereferenceable(10) %51, ptr noundef nonnull dereferenceable(10) @.str.175, i64 10)
  %.not.i24 = icmp eq i32 %bcmp.i, 0
  br i1 %.not.i24, label %56, label %zend_string_equals_cstr.exit.thread

zend_string_equals_cstr.exit.thread:              ; preds = %46, %zend_string_equals_cstr.exit
  %52 = load i32, ptr %11, align 4, !tbaa !67
  %53 = and i32 %52, 2
  %.not23 = icmp eq i32 %53, 0
  br i1 %.not23, label %54, label %56

54:                                               ; preds = %zend_string_equals_cstr.exit.thread
  %55 = load ptr, ptr @zend_ce_stringable, align 8, !tbaa !65, !nonnull !154, !noundef !154
  call void @zend_do_implement_interface(ptr noundef nonnull %4, ptr noundef nonnull %55) #34
  br label %56

56:                                               ; preds = %54, %zend_string_equals_cstr.exit.thread, %zend_string_equals_cstr.exit, %zend_string_release_ex.exit
  ret ptr %4
}